; Function Attrs: nounwind uwtable
define internal i32 @be_filter_flush(ptr noundef %0, i16 noundef signext %1, i32 noundef %2) #0 {
  %4 = alloca i32, align 4
  call void @llvm.lifetime.start.p0(i64 4, ptr nonnull %4) #3
  store i32 0, ptr %4, align 4
  tail call void @bufferevent_incref_and_lock_(ptr noundef %0) #3
  %5 = and i16 %1, 2
  %.not = icmp eq i16 %5, 0
  br i1 %.not, label %7, label %6

6:                                                ; preds = %3
  call fastcc void @be_filter_process_input(ptr noundef %0, i32 noundef %2, ptr noundef %4)
  br label %7

7:                                                ; preds = %6, %3
  %8 = and i16 %1, 4
  %.not11 = icmp eq i16 %8, 0
  br i1 %.not11, label %10, label %9

9:                                                ; preds = %7
  call fastcc void @be_filter_process_output(ptr noundef %0, i32 noundef %2, ptr noundef %4)
  br label %10

10:                                               ; preds = %9, %7
  %11 = getelementptr inbounds nuw i8, ptr %0, i64 520
  %12 = load ptr, ptr %11, align 8
  %13 = tail call i32 @bufferevent_flush(ptr noundef %12, i16 noundef signext %1, i32 noundef %2) #3
  %14 = tail call i32 @bufferevent_decref_and_unlock_(ptr noundef %0) #3
  %15 = load i32, ptr %4, align 4
  call void @llvm.lifetime.end.p0(i64 4, ptr nonnull %4) #3
  ret i32 %15
}